target datalayout = "e-m:e-p270:32:32-p271:32:32-p272:64:64-i64:64-i128:128-f80:128-n8:16:32:64-S128"
target triple = "x86_64-pc-linux-gnu"

%struct.Variable = type { i32, double, double, double, ptr, i8, %"class.std::vector", %"class.std::vector" }
%"class.std::vector" = type { %"struct.std::_Vector_base" }
%"struct.std::_Vector_base" = type { %"struct.std::_Vector_base<Constraint *, std::allocator<Constraint *>>::_Vector_impl" }
%"struct.std::_Vector_base<Constraint *, std::allocator<Constraint *>>::_Vector_impl" = type { %"struct.std::_Vector_base<Constraint *, std::allocator<Constraint *>>::_Vector_impl_data" }
%"struct.std::_Vector_base<Constraint *, std::allocator<Constraint *>>::_Vector_impl_data" = type { ptr, ptr, ptr }
%class.Block = type { %"class.std::vector.0", double, double, double, i8, i64, %"class.std::vector", %"class.std::vector" }
%"class.std::vector.0" = type { %"struct.std::_Vector_base.1" }
%"struct.std::_Vector_base.1" = type { %"struct.std::_Vector_base<Variable *, std::allocator<Variable *>>::_Vector_impl" }
%"struct.std::_Vector_base<Variable *, std::allocator<Variable *>>::_Vector_impl" = type { %"struct.std::_Vector_base<Variable *, std::allocator<Variable *>>::_Vector_impl_data" }
%"struct.std::_Vector_base<Variable *, std::allocator<Variable *>>::_Vector_impl_data" = type { ptr, ptr, ptr }
%struct.Constraint = type <{ ptr, ptr, double, double, i64, i8, i8, [6 x i8] }>

; Function Attrs: mustprogress nounwind uwtable
define linkonce_odr noundef i64 @_ZNKSt6vectorIP8VariableSaIS1_EE4sizeEv(ptr noundef nonnull align 8 dereferenceable(24) %0) #6 comdat align 2 {
  %2 = alloca ptr, align 8
  store ptr %0, ptr %2, align 8, !tbaa !33
  %3 = load ptr, ptr %2, align 8
  %4 = getelementptr inbounds nuw %"struct.std::_Vector_base.1", ptr %3, i32 0, i32 0
  %5 = getelementptr inbounds nuw %"struct.std::_Vector_base<Variable *, std::allocator<Variable *>>::_Vector_impl_data", ptr %4, i32 0, i32 1
  %6 = load ptr, ptr %5, align 8, !tbaa !36
  %7 = getelementptr inbounds nuw %"struct.std::_Vector_base.1", ptr %3, i32 0, i32 0
  %8 = getelementptr inbounds nuw %"struct.std::_Vector_base<Variable *, std::allocator<Variable *>>::_Vector_impl_data", ptr %7, i32 0, i32 0
  %9 = load ptr, ptr %8, align 8, !tbaa !44
  %10 = ptrtoint ptr %6 to i64
  %11 = ptrtoint ptr %9 to i64
  %12 = sub i64 %10, %11
  %13 = sdiv exact i64 %12, 8
  ret i64 %13
}

; Function Attrs: mustprogress uwtable
define void @_ZN5Block5mergeEPS_P10Constraint(ptr noundef nonnull align 8 dereferenceable(112) %0, ptr noundef %1, ptr noundef %2) #4 align 2 {
  %4 = alloca ptr, align 8
  %5 = alloca ptr, align 8
  %6 = alloca ptr, align 8
  %7 = alloca double, align 8
  %8 = alloca ptr, align 8
  %9 = alloca ptr, align 8
  store ptr %0, ptr %4, align 8, !tbaa !3
  store ptr %1, ptr %5, align 8, !tbaa !3
  store ptr %2, ptr %6, align 8, !tbaa !53
  %10 = load ptr, ptr %4, align 8
  call void @llvm.lifetime.start.p0(i64 8, ptr %7) #3
  %11 = load ptr, ptr %6, align 8, !tbaa !53
  %12 = getelementptr inbounds nuw %struct.Constraint, ptr %11, i32 0, i32 1
  %13 = load ptr, ptr %12, align 8, !tbaa !59
  %14 = getelementptr inbounds nuw %struct.Variable, ptr %13, i32 0, i32 3
  %15 = load double, ptr %14, align 8, !tbaa !30
  %16 = load ptr, ptr %6, align 8, !tbaa !53
  %17 = getelementptr inbounds nuw %struct.Constraint, ptr %16, i32 0, i32 0
  %18 = load ptr, ptr %17, align 8, !tbaa !58
  %19 = getelementptr inbounds nuw %struct.Variable, ptr %18, i32 0, i32 3
  %20 = load double, ptr %19, align 8, !tbaa !30
  %21 = fsub double %15, %20
  %22 = load ptr, ptr %6, align 8, !tbaa !53
  %23 = getelementptr inbounds nuw %struct.Constraint, ptr %22, i32 0, i32 2
  %24 = load double, ptr %23, align 8, !tbaa !66
  %25 = fsub double %21, %24
  store double %25, ptr %7, align 8, !tbaa !45
  call void @llvm.lifetime.start.p0(i64 8, ptr %8) #3
  %26 = load ptr, ptr %6, align 8, !tbaa !53
  %27 = getelementptr inbounds nuw %struct.Constraint, ptr %26, i32 0, i32 0
  %28 = load ptr, ptr %27, align 8, !tbaa !58
  %29 = getelementptr inbounds nuw %struct.Variable, ptr %28, i32 0, i32 4
  %30 = load ptr, ptr %29, align 8, !tbaa !10
  store ptr %30, ptr %8, align 8, !tbaa !3
  call void @llvm.lifetime.start.p0(i64 8, ptr %9) #3
  %31 = load ptr, ptr %6, align 8, !tbaa !53
  %32 = getelementptr inbounds nuw %struct.Constraint, ptr %31, i32 0, i32 1
  %33 = load ptr, ptr %32, align 8, !tbaa !59
  %34 = getelementptr inbounds nuw %struct.Variable, ptr %33, i32 0, i32 4
  %35 = load ptr, ptr %34, align 8, !tbaa !10
  store ptr %35, ptr %9, align 8, !tbaa !3
  %36 = getelementptr inbounds nuw %class.Block, ptr %10, i32 0, i32 0
  %37 = call noundef i64 @_ZNKSt6vectorIP8VariableSaIS1_EE4sizeEv(ptr noundef nonnull align 8 dereferenceable(24) %36) #3
  %38 = load ptr, ptr %5, align 8, !tbaa !3
  %39 = getelementptr inbounds nuw %class.Block, ptr %38, i32 0, i32 0
  %40 = call noundef i64 @_ZNKSt6vectorIP8VariableSaIS1_EE4sizeEv(ptr noundef nonnull align 8 dereferenceable(24) %39) #3
  %41 = icmp ult i64 %37, %40
  br i1 %41, label %42, label %47

42:                                               ; preds = %3
  %43 = load ptr, ptr %9, align 8, !tbaa !3
  %44 = load ptr, ptr %8, align 8, !tbaa !3
  %45 = load ptr, ptr %6, align 8, !tbaa !53
  %46 = load double, ptr %7, align 8, !tbaa !45
  call void @_ZN5Block5mergeEPS_P10Constraintd(ptr noundef nonnull align 8 dereferenceable(112) %43, ptr noundef %44, ptr noundef %45, double noundef %46)
  br label %53

47:                                               ; preds = %3
  %48 = load ptr, ptr %8, align 8, !tbaa !3
  %49 = load ptr, ptr %9, align 8, !tbaa !3
  %50 = load ptr, ptr %6, align 8, !tbaa !53
  %51 = load double, ptr %7, align 8, !tbaa !45
  %52 = fneg double %51
  call void @_ZN5Block5mergeEPS_P10Constraintd(ptr noundef nonnull align 8 dereferenceable(112) %48, ptr noundef %49, ptr noundef %50, double noundef %52)
  br label %53

53:                                               ; preds = %47, %42
  call void @llvm.lifetime.end.p0(i64 8, ptr %9) #3
  call void @llvm.lifetime.end.p0(i64 8, ptr %8) #3
  call void @llvm.lifetime.end.p0(i64 8, ptr %7) #3
  ret void
}