; Function Attrs: mustprogress uwtable
define void @_ZN5Block5mergeEPS_P10Constraint(ptr noundef nonnull readonly align 8 captures(none) dereferenceable(112) %0, ptr noundef readonly captures(none) %1, ptr noundef captures(none) initializes((40, 41)) %2) local_unnamed_addr #3 align 2 {
  %4 = getelementptr inbounds nuw i8, ptr %2, i64 8
  %5 = load ptr, ptr %4, align 8, !tbaa !48
  %6 = getelementptr inbounds nuw i8, ptr %5, i64 24
  %7 = load double, ptr %6, align 8, !tbaa !32
  %8 = load ptr, ptr %2, align 8, !tbaa !47
  %9 = getelementptr inbounds nuw i8, ptr %8, i64 24
  %10 = load double, ptr %9, align 8, !tbaa !32
  %11 = fsub double %7, %10
  %12 = getelementptr inbounds nuw i8, ptr %2, i64 16
  %13 = load double, ptr %12, align 8, !tbaa !49
  %14 = fsub double %11, %13
  %15 = getelementptr inbounds nuw i8, ptr %8, i64 32
  %16 = load ptr, ptr %15, align 8, !tbaa !3
  %17 = getelementptr inbounds nuw i8, ptr %5, i64 32
  %18 = load ptr, ptr %17, align 8, !tbaa !3
  %19 = getelementptr inbounds nuw i8, ptr %0, i64 8
  %20 = load ptr, ptr %19, align 8, !tbaa !17
  %21 = load ptr, ptr %0, align 8, !tbaa !23
  %22 = ptrtoint ptr %20 to i64
  %23 = ptrtoint ptr %21 to i64
  %24 = sub i64 %22, %23
  %25 = getelementptr inbounds nuw i8, ptr %1, i64 8
  %26 = load ptr, ptr %25, align 8, !tbaa !17
  %27 = load ptr, ptr %1, align 8, !tbaa !23
  %28 = ptrtoint ptr %26 to i64
  %29 = ptrtoint ptr %27 to i64
  %30 = sub i64 %28, %29
  %31 = icmp ult i64 %24, %30
  br i1 %31, label %32, label %33

32:                                               ; preds = %3
  tail call void @_ZN5Block5mergeEPS_P10Constraintd(ptr noundef nonnull align 8 dereferenceable(112) %18, ptr noundef %16, ptr noundef nonnull %2, double noundef %14)
  br label %35

33:                                               ; preds = %3
  %34 = fneg double %14
  tail call void @_ZN5Block5mergeEPS_P10Constraintd(ptr noundef nonnull align 8 dereferenceable(112) %16, ptr noundef %18, ptr noundef nonnull %2, double noundef %34)
  br label %35

35:                                               ; preds = %33, %32
  ret void
}